target datalayout = "e-m:e-p270:32:32-p271:32:32-p272:64:64-i64:64-i128:128-f80:128-n8:16:32:64-S128"
target triple = "x86_64-pc-linux-gnu"

%"class.smt2::scanner" = type { ptr, i8, i32, i8, i8, i32, i32, %class.symbol, %class.rational, i32, [256 x i8], [1024 x i8], i32, i32, %class.svector, ptr, i8, %class.svector, %class.svector }
%class.symbol = type { ptr }
%class.rational = type { %class.mpq }
%class.mpq = type { %class.mpz, %class.mpz }
%class.mpz = type { i32, i8, ptr }
%class.svector = type { %class.vector }
%class.vector = type { ptr }
%"class.std::basic_istream" = type { ptr, i64, %"class.std::basic_ios" }
%"class.std::basic_ios" = type { %"class.std::ios_base", ptr, i8, i8, ptr, ptr, ptr, ptr }
%"class.std::ios_base" = type { ptr, i64, i64, i32, i32, i32, ptr, %"struct.std::ios_base::_Words", [8 x %"struct.std::ios_base::_Words"], i32, ptr, %"class.std::locale" }
%"struct.std::ios_base::_Words" = type { ptr, i64 }
%"class.std::locale" = type { ptr }

@.str = private unnamed_addr constant [23 x i8] c"unexpected end of file\00", align 1
@_ZTI13cmd_exception = linkonce_odr hidden constant { ptr, ptr, ptr } { ptr getelementptr inbounds (ptr, ptr @_ZTVN10__cxxabiv120__si_class_type_infoE, i64 2), ptr @_ZTS13cmd_exception, ptr @_ZTI17default_exception }, comdat, align 8

; Function Attrs: inlinehint mustprogress nounwind uwtable
define linkonce_odr noundef i32 @_ZStanSt12_Ios_IostateS_(i32 noundef %0, i32 noundef %1) #8 comdat {
  %3 = alloca i32, align 4
  %4 = alloca i32, align 4
  store i32 %0, ptr %3, align 4, !tbaa !132
  store i32 %1, ptr %4, align 4, !tbaa !132
  %5 = load i32, ptr %3, align 4, !tbaa !132
  %6 = load i32, ptr %4, align 4, !tbaa !132
  %7 = and i32 %5, %6
  ret i32 %7
}

; Function Attrs: mustprogress nounwind uwtable
define available_externally noundef i32 @_ZNKSt9basic_iosIcSt11char_traitsIcEE7rdstateEv(ptr noundef nonnull align 8 dereferenceable(264) %0) #5 align 2 {
  %2 = alloca ptr, align 8
  store ptr %0, ptr %2, align 8, !tbaa !50
  %3 = load ptr, ptr %2, align 8
  %4 = getelementptr inbounds nuw %"class.std::ios_base", ptr %3, i32 0, i32 5
  %5 = load i32, ptr %4, align 8, !tbaa !134
  ret i32 %5
}

; Function Attrs: mustprogress nounwind uwtable
define available_externally noundef i64 @_ZNKSi6gcountEv(ptr noundef nonnull align 8 dereferenceable(16) %0) #5 align 2 {
  %2 = alloca ptr, align 8
  store ptr %0, ptr %2, align 8, !tbaa !52
  %3 = load ptr, ptr %2, align 8
  %4 = getelementptr inbounds nuw %"class.std::basic_istream", ptr %3, i32 0, i32 1
  %5 = load i64, ptr %4, align 8, !tbaa !53
  ret i64 %5
}

; Function Attrs: mustprogress uwtable
define available_externally noundef zeroext i1 @_ZNKSt9basic_iosIcSt11char_traitsIcEE3eofEv(ptr noundef nonnull align 8 dereferenceable(264) %0) #4 align 2 {
  %2 = alloca ptr, align 8
  store ptr %0, ptr %2, align 8, !tbaa !50
  %3 = load ptr, ptr %2, align 8
  %4 = call noundef i32 @_ZNKSt9basic_iosIcSt11char_traitsIcEE7rdstateEv(ptr noundef nonnull align 8 dereferenceable(264) %3)
  %5 = call noundef i32 @_ZStanSt12_Ios_IostateS_(i32 noundef %4, i32 noundef 2)
  %6 = icmp ne i32 %5, 0
  ret i1 %6
}

; Function Attrs: mustprogress uwtable
define linkonce_odr hidden noundef nonnull align 8 dereferenceable(8) ptr @_ZN6vectorIcLb0EjE9push_backERKc(ptr noundef nonnull align 8 dereferenceable(8) %0, ptr noundef nonnull align 1 dereferenceable(1) %1) #4 comdat align 2 {
  %3 = alloca ptr, align 8
  %4 = alloca ptr, align 8
  store ptr %0, ptr %3, align 8, !tbaa !34
  store ptr %1, ptr %4, align 8, !tbaa !36
  %5 = load ptr, ptr %3, align 8
  %6 = getelementptr inbounds nuw %class.vector, ptr %5, i32 0, i32 0
  %7 = load ptr, ptr %6, align 8, !tbaa !37
  %8 = icmp eq ptr %7, null
  br i1 %8, label %19, label %9

9:                                                ; preds = %2
  %10 = getelementptr inbounds nuw %class.vector, ptr %5, i32 0, i32 0
  %11 = load ptr, ptr %10, align 8, !tbaa !37
  %12 = getelementptr inbounds i32, ptr %11, i64 -1
  %13 = load i32, ptr %12, align 4, !tbaa !38
  %14 = getelementptr inbounds nuw %class.vector, ptr %5, i32 0, i32 0
  %15 = load ptr, ptr %14, align 8, !tbaa !37
  %16 = getelementptr inbounds i32, ptr %15, i64 -2
  %17 = load i32, ptr %16, align 4, !tbaa !38
  %18 = icmp eq i32 %13, %17
  br i1 %18, label %19, label %20

19:                                               ; preds = %9, %2
  call void @_ZN6vectorIcLb0EjE13expand_vectorEv(ptr noundef nonnull align 8 dereferenceable(8) %5)
  br label %20

20:                                               ; preds = %19, %9
  %21 = getelementptr inbounds nuw %class.vector, ptr %5, i32 0, i32 0
  %22 = load ptr, ptr %21, align 8, !tbaa !37
  %23 = getelementptr inbounds nuw %class.vector, ptr %5, i32 0, i32 0
  %24 = load ptr, ptr %23, align 8, !tbaa !37
  %25 = getelementptr inbounds i32, ptr %24, i64 -1
  %26 = load i32, ptr %25, align 4, !tbaa !38
  %27 = zext i32 %26 to i64
  %28 = getelementptr inbounds nuw i8, ptr %22, i64 %27
  %29 = load ptr, ptr %4, align 8, !tbaa !36
  %30 = load i8, ptr %29, align 1, !tbaa !32
  store i8 %30, ptr %28, align 1, !tbaa !32
  %31 = getelementptr inbounds nuw %class.vector, ptr %5, i32 0, i32 0
  %32 = load ptr, ptr %31, align 8, !tbaa !37
  %33 = getelementptr inbounds i32, ptr %32, i64 -1
  %34 = load i32, ptr %33, align 4, !tbaa !38
  %35 = add i32 %34, 1
  store i32 %35, ptr %33, align 4, !tbaa !38
  ret ptr %5
}

; Function Attrs: mustprogress uwtable
define hidden void @_ZN4smt27scanner4nextEv(ptr noundef nonnull align 8 dereferenceable(1408) %0) #4 align 2 personality ptr @__gxx_personality_v0 {
  %2 = alloca ptr, align 8
  %3 = alloca ptr, align 8
  %4 = alloca i32, align 4
  store ptr %0, ptr %2, align 8, !tbaa !3
  %5 = load ptr, ptr %2, align 8
  %6 = getelementptr inbounds nuw %"class.smt2::scanner", ptr %5, i32 0, i32 16
  %7 = load i8, ptr %6, align 8, !tbaa !8, !range !22, !noundef !23
  %8 = trunc i8 %7 to i1
  br i1 %8, label %9, label %13

9:                                                ; preds = %1
  %10 = getelementptr inbounds nuw %"class.smt2::scanner", ptr %5, i32 0, i32 17
  %11 = getelementptr inbounds nuw %"class.smt2::scanner", ptr %5, i32 0, i32 3
  %12 = call noundef nonnull align 8 dereferenceable(8) ptr @_ZN6vectorIcLb0EjE9push_backERKc(ptr noundef nonnull align 8 dereferenceable(8) %10, ptr noundef nonnull align 1 dereferenceable(1) %11)
  br label %13

13:                                               ; preds = %9, %1
  %14 = getelementptr inbounds nuw %"class.smt2::scanner", ptr %5, i32 0, i32 4
  %15 = load i8, ptr %14, align 1, !tbaa !24, !range !22, !noundef !23
  %16 = trunc i8 %15 to i1
  br i1 %16, label %17, label %24

17:                                               ; preds = %13
  %18 = call ptr @__cxa_allocate_exception(i64 48) #3
  invoke void @_ZN13cmd_exceptionC2EPKc(ptr noundef nonnull align 8 dereferenceable(48) %18, ptr noundef @.str)
          to label %19 unwind label %20

19:                                               ; preds = %17
  call void @__cxa_throw(ptr %18, ptr @_ZTI13cmd_exception, ptr @_ZN17default_exceptionD2Ev) #18
  unreachable

20:                                               ; preds = %17
  %21 = landingpad { ptr, i32 }
          cleanup
  %22 = extractvalue { ptr, i32 } %21, 0
  store ptr %22, ptr %3, align 8
  %23 = extractvalue { ptr, i32 } %21, 1
  store i32 %23, ptr %4, align 4
  call void @__cxa_free_exception(ptr %18) #3
  br label %97

24:                                               ; preds = %13
  %25 = getelementptr inbounds nuw %"class.smt2::scanner", ptr %5, i32 0, i32 1
  %26 = load i8, ptr %25, align 8, !tbaa !25, !range !22, !noundef !23
  %27 = trunc i8 %26 to i1
  br i1 %27, label %28, label %44

28:                                               ; preds = %24
  %29 = getelementptr inbounds nuw %"class.smt2::scanner", ptr %5, i32 0, i32 15
  %30 = load ptr, ptr %29, align 8, !tbaa !26
  %31 = call noundef i32 @_ZNSi3getEv(ptr noundef nonnull align 8 dereferenceable(16) %30)
  %32 = trunc i32 %31 to i8
  %33 = getelementptr inbounds nuw %"class.smt2::scanner", ptr %5, i32 0, i32 3
  store i8 %32, ptr %33, align 8, !tbaa !27
  %34 = getelementptr inbounds nuw %"class.smt2::scanner", ptr %5, i32 0, i32 15
  %35 = load ptr, ptr %34, align 8, !tbaa !26
  %36 = load ptr, ptr %35, align 8, !tbaa !28
  %37 = getelementptr i8, ptr %36, i64 -24
  %38 = load i64, ptr %37, align 8
  %39 = getelementptr inbounds i8, ptr %35, i64 %38
  %40 = call noundef zeroext i1 @_ZNKSt9basic_iosIcSt11char_traitsIcEE3eofEv(ptr noundef nonnull align 8 dereferenceable(264) %39)
  br i1 %40, label %41, label %43

41:                                               ; preds = %28
  %42 = getelementptr inbounds nuw %"class.smt2::scanner", ptr %5, i32 0, i32 4
  store i8 1, ptr %42, align 1, !tbaa !24
  br label %43

43:                                               ; preds = %41, %28
  br label %93

44:                                               ; preds = %24
  %45 = getelementptr inbounds nuw %"class.smt2::scanner", ptr %5, i32 0, i32 12
  %46 = load i32, ptr %45, align 4, !tbaa !30
  %47 = getelementptr inbounds nuw %"class.smt2::scanner", ptr %5, i32 0, i32 13
  %48 = load i32, ptr %47, align 8, !tbaa !31
  %49 = icmp ult i32 %46, %48
  br i1 %49, label %50, label %61

50:                                               ; preds = %44
  %51 = getelementptr inbounds nuw %"class.smt2::scanner", ptr %5, i32 0, i32 11
  %52 = getelementptr inbounds nuw %"class.smt2::scanner", ptr %5, i32 0, i32 12
  %53 = load i32, ptr %52, align 4, !tbaa !30
  %54 = zext i32 %53 to i64
  %55 = getelementptr inbounds nuw [1024 x i8], ptr %51, i64 0, i64 %54
  %56 = load i8, ptr %55, align 1, !tbaa !32
  %57 = getelementptr inbounds nuw %"class.smt2::scanner", ptr %5, i32 0, i32 3
  store i8 %56, ptr %57, align 8, !tbaa !27
  %58 = getelementptr inbounds nuw %"class.smt2::scanner", ptr %5, i32 0, i32 12
  %59 = load i32, ptr %58, align 4, !tbaa !30
  %60 = add i32 %59, 1
  store i32 %60, ptr %58, align 4, !tbaa !30
  br label %92

61:                                               ; preds = %44
  %62 = getelementptr inbounds nuw %"class.smt2::scanner", ptr %5, i32 0, i32 15
  %63 = load ptr, ptr %62, align 8, !tbaa !26
  %64 = getelementptr inbounds nuw %"class.smt2::scanner", ptr %5, i32 0, i32 11
  %65 = getelementptr inbounds [1024 x i8], ptr %64, i64 0, i64 0
  %66 = call noundef nonnull align 8 dereferenceable(16) ptr @_ZNSi4readEPcl(ptr noundef nonnull align 8 dereferenceable(16) %63, ptr noundef %65, i64 noundef 1024)
  %67 = getelementptr inbounds nuw %"class.smt2::scanner", ptr %5, i32 0, i32 15
  %68 = load ptr, ptr %67, align 8, !tbaa !26
  %69 = call noundef i64 @_ZNKSi6gcountEv(ptr noundef nonnull align 8 dereferenceable(16) %68)
  %70 = trunc i64 %69 to i32
  %71 = getelementptr inbounds nuw %"class.smt2::scanner", ptr %5, i32 0, i32 13
  store i32 %70, ptr %71, align 8, !tbaa !31
  %72 = getelementptr inbounds nuw %"class.smt2::scanner", ptr %5, i32 0, i32 12
  store i32 0, ptr %72, align 4, !tbaa !30
  %73 = getelementptr inbounds nuw %"class.smt2::scanner", ptr %5, i32 0, i32 12
  %74 = load i32, ptr %73, align 4, !tbaa !30
  %75 = getelementptr inbounds nuw %"class.smt2::scanner", ptr %5, i32 0, i32 13
  %76 = load i32, ptr %75, align 8, !tbaa !31
  %77 = icmp eq i32 %74, %76
  br i1 %77, label %78, label %80

78:                                               ; preds = %61
  %79 = getelementptr inbounds nuw %"class.smt2::scanner", ptr %5, i32 0, i32 4
  store i8 1, ptr %79, align 1, !tbaa !24
  br label %91

80:                                               ; preds = %61
  %81 = getelementptr inbounds nuw %"class.smt2::scanner", ptr %5, i32 0, i32 11
  %82 = getelementptr inbounds nuw %"class.smt2::scanner", ptr %5, i32 0, i32 12
  %83 = load i32, ptr %82, align 4, !tbaa !30
  %84 = zext i32 %83 to i64
  %85 = getelementptr inbounds nuw [1024 x i8], ptr %81, i64 0, i64 %84
  %86 = load i8, ptr %85, align 1, !tbaa !32
  %87 = getelementptr inbounds nuw %"class.smt2::scanner", ptr %5, i32 0, i32 3
  store i8 %86, ptr %87, align 8, !tbaa !27
  %88 = getelementptr inbounds nuw %"class.smt2::scanner", ptr %5, i32 0, i32 12
  %89 = load i32, ptr %88, align 4, !tbaa !30
  %90 = add i32 %89, 1
  store i32 %90, ptr %88, align 4, !tbaa !30
  br label %91

91:                                               ; preds = %80, %78
  br label %92

92:                                               ; preds = %91, %50
  br label %93

93:                                               ; preds = %92, %43
  %94 = getelementptr inbounds nuw %"class.smt2::scanner", ptr %5, i32 0, i32 2
  %95 = load i32, ptr %94, align 4, !tbaa !33
  %96 = add nsw i32 %95, 1
  store i32 %96, ptr %94, align 4, !tbaa !33
  ret void

97:                                               ; preds = %20
  %98 = load ptr, ptr %3, align 8
  %99 = load i32, ptr %4, align 4
  %100 = insertvalue { ptr, i32 } poison, ptr %98, 0
  %101 = insertvalue { ptr, i32 } %100, i32 %99, 1
  resume { ptr, i32 } %101
}