; Function Attrs: mustprogress uwtable
define hidden void @_ZN4smt27scanner4nextEv(ptr noundef nonnull align 8 dereferenceable(1408) %0) local_unnamed_addr #3 align 2 personality ptr @__gxx_personality_v0 {
  %2 = getelementptr inbounds nuw i8, ptr %0, i64 1384
  %3 = load i8, ptr %2, align 8, !tbaa !3, !range !20, !noundef !21
  %4 = trunc nuw i8 %3 to i1
  br i1 %4, label %5, label %26

5:                                                ; preds = %1
  %6 = getelementptr inbounds nuw i8, ptr %0, i64 1392
  %7 = getelementptr inbounds nuw i8, ptr %0, i64 16
  %8 = load ptr, ptr %6, align 8, !tbaa !22
  %9 = icmp eq ptr %8, null
  br i1 %9, label %16, label %10

10:                                               ; preds = %5
  %11 = getelementptr inbounds i8, ptr %8, i64 -4
  %12 = load i32, ptr %11, align 4, !tbaa !23
  %13 = getelementptr inbounds i8, ptr %8, i64 -8
  %14 = load i32, ptr %13, align 4, !tbaa !23
  %15 = icmp eq i32 %12, %14
  br i1 %15, label %16, label %_ZN6vectorIcLb0EjE9push_backERKc.exit

16:                                               ; preds = %10, %5
  tail call void @_ZN6vectorIcLb0EjE13expand_vectorEv(ptr noundef nonnull align 8 dereferenceable(8) %6)
  %.pre.i = load ptr, ptr %6, align 8, !tbaa !22
  %.phi.trans.insert.i = getelementptr inbounds i8, ptr %.pre.i, i64 -4
  %.pre2.i = load i32, ptr %.phi.trans.insert.i, align 4, !tbaa !23
  br label %_ZN6vectorIcLb0EjE9push_backERKc.exit

_ZN6vectorIcLb0EjE9push_backERKc.exit:            ; preds = %10, %16
  %17 = phi i32 [ %.pre2.i, %16 ], [ %12, %10 ]
  %18 = phi ptr [ %.pre.i, %16 ], [ %8, %10 ]
  %19 = zext i32 %17 to i64
  %20 = getelementptr inbounds nuw i8, ptr %18, i64 %19
  %21 = load i8, ptr %7, align 8, !tbaa !24
  store i8 %21, ptr %20, align 1, !tbaa !24
  %22 = load ptr, ptr %6, align 8, !tbaa !22
  %23 = getelementptr inbounds i8, ptr %22, i64 -4
  %24 = load i32, ptr %23, align 4, !tbaa !23
  %25 = add i32 %24, 1
  store i32 %25, ptr %23, align 4, !tbaa !23
  br label %26

26:                                               ; preds = %_ZN6vectorIcLb0EjE9push_backERKc.exit, %1
  %27 = getelementptr inbounds nuw i8, ptr %0, i64 17
  %28 = load i8, ptr %27, align 1, !tbaa !25, !range !20, !noundef !21
  %29 = trunc nuw i8 %28 to i1
  br i1 %29, label %30, label %35

30:                                               ; preds = %26
  %31 = tail call ptr @__cxa_allocate_exception(i64 48) #21
  invoke void @_ZN13cmd_exceptionC2EPKc(ptr noundef nonnull align 8 dereferenceable(48) %31, ptr noundef nonnull @.str)
          to label %32 unwind label %33

32:                                               ; preds = %30
  tail call void @__cxa_throw(ptr nonnull %31, ptr nonnull @_ZTI13cmd_exception, ptr nonnull @_ZN17default_exceptionD2Ev) #22
  unreachable

33:                                               ; preds = %30
  %34 = landingpad { ptr, i32 }
          cleanup
  tail call void @__cxa_free_exception(ptr nonnull %31) #21
  resume { ptr, i32 } %34

35:                                               ; preds = %26
  %36 = getelementptr inbounds nuw i8, ptr %0, i64 8
  %37 = load i8, ptr %36, align 8, !tbaa !26, !range !20, !noundef !21
  %38 = trunc nuw i8 %37 to i1
  br i1 %38, label %39, label %54

39:                                               ; preds = %35
  %40 = getelementptr inbounds nuw i8, ptr %0, i64 1376
  %41 = load ptr, ptr %40, align 8, !tbaa !27
  %42 = tail call noundef i32 @_ZNSi3getEv(ptr noundef nonnull align 8 dereferenceable(16) %41)
  %43 = trunc i32 %42 to i8
  %44 = getelementptr inbounds nuw i8, ptr %0, i64 16
  store i8 %43, ptr %44, align 8, !tbaa !28
  %45 = load ptr, ptr %40, align 8, !tbaa !27
  %46 = load ptr, ptr %45, align 8, !tbaa !29
  %47 = getelementptr i8, ptr %46, i64 -24
  %48 = load i64, ptr %47, align 8
  %49 = getelementptr inbounds i8, ptr %45, i64 %48
  %50 = getelementptr inbounds nuw i8, ptr %49, i64 32
  %51 = load i32, ptr %50, align 8, !tbaa !31
  %52 = and i32 %51, 2
  %.not = icmp eq i32 %52, 0
  br i1 %.not, label %81, label %53

53:                                               ; preds = %39
  store i8 1, ptr %27, align 1, !tbaa !25
  br label %81

54:                                               ; preds = %35
  %55 = getelementptr inbounds nuw i8, ptr %0, i64 1356
  %56 = load i32, ptr %55, align 4, !tbaa !41
  %57 = getelementptr inbounds nuw i8, ptr %0, i64 1360
  %58 = load i32, ptr %57, align 8, !tbaa !42
  %59 = icmp ult i32 %56, %58
  br i1 %59, label %60, label %67

60:                                               ; preds = %54
  %61 = getelementptr inbounds nuw i8, ptr %0, i64 332
  %62 = zext i32 %56 to i64
  %63 = getelementptr inbounds nuw [1024 x i8], ptr %61, i64 0, i64 %62
  %64 = load i8, ptr %63, align 1, !tbaa !24
  %65 = getelementptr inbounds nuw i8, ptr %0, i64 16
  store i8 %64, ptr %65, align 8, !tbaa !28
  %66 = add nuw i32 %56, 1
  store i32 %66, ptr %55, align 4, !tbaa !41
  br label %81

67:                                               ; preds = %54
  %68 = getelementptr inbounds nuw i8, ptr %0, i64 1376
  %69 = load ptr, ptr %68, align 8, !tbaa !27
  %70 = getelementptr inbounds nuw i8, ptr %0, i64 332
  %71 = tail call noundef nonnull align 8 dereferenceable(16) ptr @_ZNSi4readEPcl(ptr noundef nonnull align 8 dereferenceable(16) %69, ptr noundef nonnull %70, i64 noundef 1024)
  %72 = load ptr, ptr %68, align 8, !tbaa !27
  %73 = getelementptr inbounds nuw i8, ptr %72, i64 8
  %74 = load i64, ptr %73, align 8, !tbaa !43
  %75 = trunc i64 %74 to i32
  store i32 %75, ptr %57, align 8, !tbaa !42
  store i32 0, ptr %55, align 4, !tbaa !41
  %76 = icmp eq i32 %75, 0
  br i1 %76, label %77, label %78

77:                                               ; preds = %67
  store i8 1, ptr %27, align 1, !tbaa !25
  br label %81

78:                                               ; preds = %67
  %79 = load i8, ptr %70, align 4, !tbaa !24
  %80 = getelementptr inbounds nuw i8, ptr %0, i64 16
  store i8 %79, ptr %80, align 8, !tbaa !28
  store i32 1, ptr %55, align 4, !tbaa !41
  br label %81

81:                                               ; preds = %60, %78, %77, %39, %53
  %82 = getelementptr inbounds nuw i8, ptr %0, i64 12
  %83 = load i32, ptr %82, align 4, !tbaa !45
  %84 = add nsw i32 %83, 1
  store i32 %84, ptr %82, align 4, !tbaa !45
  ret void
}